target datalayout = "e-m:e-p270:32:32-p271:32:32-p272:64:64-i64:64-i128:128-f80:128-n8:16:32:64-S128"
target triple = "x86_64-pc-linux-gnu"

%struct.lean_object = type { i32, i32 }
%struct.lean_ctor_object = type { %struct.lean_object, [0 x ptr] }

; Function Attrs: inlinehint nounwind uwtable
define internal ptr @lean_to_ctor(ptr noundef %0) #0 {
  %2 = alloca ptr, align 8
  store ptr %0, ptr %2, align 8, !tbaa !4
  %3 = load ptr, ptr %2, align 8, !tbaa !4
  ret ptr %3
}

; Function Attrs: alwaysinline nounwind uwtable
define internal zeroext i1 @lean_nat_lt(ptr noundef %0, ptr noundef %1) #1 {
  %3 = alloca i1, align 1
  %4 = alloca ptr, align 8
  %5 = alloca ptr, align 8
  store ptr %0, ptr %4, align 8, !tbaa !4
  store ptr %1, ptr %5, align 8, !tbaa !4
  %6 = load ptr, ptr %4, align 8, !tbaa !4
  %7 = call zeroext i1 @lean_is_scalar(ptr noundef %6)
  br i1 %7, label %8, label %11

8:                                                ; preds = %2
  %9 = load ptr, ptr %5, align 8, !tbaa !4
  %10 = call zeroext i1 @lean_is_scalar(ptr noundef %9)
  br label %11

11:                                               ; preds = %8, %2
  %12 = phi i1 [ false, %2 ], [ %10, %8 ]
  %13 = zext i1 %12 to i32
  %14 = sext i32 %13 to i64
  %15 = call i64 @llvm.expect.i64(i64 %14, i64 1)
  %16 = icmp ne i64 %15, 0
  br i1 %16, label %17, label %21

17:                                               ; preds = %11
  %18 = load ptr, ptr %4, align 8, !tbaa !4
  %19 = load ptr, ptr %5, align 8, !tbaa !4
  %20 = icmp ult ptr %18, %19
  store i1 %20, ptr %3, align 1
  br label %25

21:                                               ; preds = %11
  %22 = load ptr, ptr %4, align 8, !tbaa !4
  %23 = load ptr, ptr %5, align 8, !tbaa !4
  %24 = call zeroext i1 @lean_nat_big_lt(ptr noundef %22, ptr noundef %23)
  store i1 %24, ptr %3, align 1
  br label %25

25:                                               ; preds = %21, %17
  %26 = load i1, ptr %3, align 1
  ret i1 %26
}

; Function Attrs: inlinehint nounwind uwtable
define internal zeroext i8 @lean_ptr_tag(ptr noundef %0) #0 {
  %2 = alloca ptr, align 8
  store ptr %0, ptr %2, align 8, !tbaa !4
  %3 = load ptr, ptr %2, align 8, !tbaa !4
  %4 = getelementptr inbounds nuw %struct.lean_object, ptr %3, i32 0, i32 1
  %5 = load i32, ptr %4, align 4
  %6 = lshr i32 %5, 24
  %7 = trunc i32 %6 to i8
  ret i8 %7
}

; Function Attrs: alwaysinline nounwind uwtable
define internal zeroext i1 @lean_is_scalar(ptr noundef %0) #1 {
  %2 = alloca ptr, align 8
  store ptr %0, ptr %2, align 8, !tbaa !4
  %3 = load ptr, ptr %2, align 8, !tbaa !4
  %4 = ptrtoint ptr %3 to i64
  %5 = and i64 %4, 1
  %6 = icmp eq i64 %5, 1
  ret i1 %6
}

; Function Attrs: inlinehint nounwind uwtable
define internal ptr @lean_ctor_obj_cptr(ptr noundef %0) #0 {
  %2 = alloca ptr, align 8
  store ptr %0, ptr %2, align 8, !tbaa !4
  %3 = load ptr, ptr %2, align 8, !tbaa !4
  %4 = call ptr @lean_to_ctor(ptr noundef %3)
  %5 = getelementptr inbounds nuw %struct.lean_ctor_object, ptr %4, i32 0, i32 1
  %6 = getelementptr inbounds [0 x ptr], ptr %5, i64 0, i64 0
  ret ptr %6
}

; Function Attrs: alwaysinline nounwind uwtable
define internal zeroext i8 @lean_nat_dec_lt(ptr noundef %0, ptr noundef %1) #1 {
  %3 = alloca ptr, align 8
  %4 = alloca ptr, align 8
  store ptr %0, ptr %3, align 8, !tbaa !4
  store ptr %1, ptr %4, align 8, !tbaa !4
  %5 = load ptr, ptr %3, align 8, !tbaa !4
  %6 = load ptr, ptr %4, align 8, !tbaa !4
  %7 = call zeroext i1 @lean_nat_lt(ptr noundef %5, ptr noundef %6)
  %8 = zext i1 %7 to i8
  ret i8 %8
}

; Function Attrs: inlinehint nounwind uwtable
define internal i64 @lean_unbox(ptr noundef %0) #0 {
  %2 = alloca ptr, align 8
  store ptr %0, ptr %2, align 8, !tbaa !4
  %3 = load ptr, ptr %2, align 8, !tbaa !4
  %4 = ptrtoint ptr %3 to i64
  %5 = lshr i64 %4, 1
  ret i64 %5
}

; Function Attrs: inlinehint nounwind uwtable
define internal i32 @lean_obj_tag(ptr noundef %0) #0 {
  %2 = alloca i32, align 4
  %3 = alloca ptr, align 8
  store ptr %0, ptr %3, align 8, !tbaa !4
  %4 = load ptr, ptr %3, align 8, !tbaa !4
  %5 = call zeroext i1 @lean_is_scalar(ptr noundef %4)
  br i1 %5, label %6, label %10

6:                                                ; preds = %1
  %7 = load ptr, ptr %3, align 8, !tbaa !4
  %8 = call i64 @lean_unbox(ptr noundef %7)
  %9 = trunc i64 %8 to i32
  store i32 %9, ptr %2, align 4
  br label %14

10:                                               ; preds = %1
  %11 = load ptr, ptr %3, align 8, !tbaa !4
  %12 = call zeroext i8 @lean_ptr_tag(ptr noundef %11)
  %13 = zext i8 %12 to i32
  store i32 %13, ptr %2, align 4
  br label %14

14:                                               ; preds = %10, %6
  %15 = load i32, ptr %2, align 4
  ret i32 %15
}

; Function Attrs: inlinehint nounwind uwtable
define internal ptr @lean_ctor_get(ptr noundef %0, i32 noundef %1) #0 {
  %3 = alloca ptr, align 8
  %4 = alloca i32, align 4
  store ptr %0, ptr %3, align 8, !tbaa !4
  store i32 %1, ptr %4, align 4, !tbaa !13
  %5 = load ptr, ptr %3, align 8, !tbaa !4
  %6 = call ptr @lean_ctor_obj_cptr(ptr noundef %5)
  %7 = load i32, ptr %4, align 4, !tbaa !13
  %8 = zext i32 %7 to i64
  %9 = getelementptr inbounds nuw ptr, ptr %6, i64 %8
  %10 = load ptr, ptr %9, align 8, !tbaa !4
  ret ptr %10
}

; Function Attrs: nounwind uwtable
define zeroext i8 @l_Array_qsort_sort___at___private_Lean_Server_Completion_CompletionInfoSelection_0__Lean_Server_Completion_computePrioritizedCompletionPartitions___spec__10___lambda__1(ptr noundef %0, ptr noundef %1) #2 {
  %3 = alloca i8, align 1
  %4 = alloca ptr, align 8
  %5 = alloca ptr, align 8
  %6 = alloca ptr, align 8
  %7 = alloca ptr, align 8
  %8 = alloca ptr, align 8
  %9 = alloca ptr, align 8
  %10 = alloca ptr, align 8
  %11 = alloca i8, align 1
  %12 = alloca ptr, align 8
  %13 = alloca i8, align 1
  %14 = alloca i32, align 4
  %15 = alloca i8, align 1
  %16 = alloca i8, align 1
  %17 = alloca ptr, align 8
  %18 = alloca ptr, align 8
  %19 = alloca i8, align 1
  %20 = alloca ptr, align 8
  %21 = alloca i8, align 1
  %22 = alloca ptr, align 8
  %23 = alloca i8, align 1
  %24 = alloca ptr, align 8
  %25 = alloca ptr, align 8
  %26 = alloca i8, align 1
  %27 = alloca i8, align 1
  %28 = alloca ptr, align 8
  %29 = alloca i8, align 1
  %30 = alloca i8, align 1
  %31 = alloca ptr, align 8
  %32 = alloca ptr, align 8
  %33 = alloca i8, align 1
  store ptr %0, ptr %4, align 8, !tbaa !4
  store ptr %1, ptr %5, align 8, !tbaa !4
  br label %34

34:                                               ; preds = %2
  call void @llvm.lifetime.start.p0(i64 8, ptr %6) #7
  call void @llvm.lifetime.start.p0(i64 8, ptr %7) #7
  %35 = load ptr, ptr %4, align 8, !tbaa !4
  %36 = call ptr @lean_ctor_get(ptr noundef %35, i32 noundef 0)
  store ptr %36, ptr %6, align 8, !tbaa !4
  %37 = load ptr, ptr %6, align 8, !tbaa !4
  %38 = call ptr @lean_ctor_get(ptr noundef %37, i32 noundef 1)
  store ptr %38, ptr %7, align 8, !tbaa !4
  %39 = load ptr, ptr %7, align 8, !tbaa !4
  %40 = call i32 @lean_obj_tag(ptr noundef %39)
  %41 = icmp eq i32 %40, 0
  br i1 %41, label %42, label %72

42:                                               ; preds = %34
  call void @llvm.lifetime.start.p0(i64 8, ptr %8) #7
  call void @llvm.lifetime.start.p0(i64 8, ptr %9) #7
  %43 = load ptr, ptr %5, align 8, !tbaa !4
  %44 = call ptr @lean_ctor_get(ptr noundef %43, i32 noundef 0)
  store ptr %44, ptr %8, align 8, !tbaa !4
  %45 = load ptr, ptr %8, align 8, !tbaa !4
  %46 = call ptr @lean_ctor_get(ptr noundef %45, i32 noundef 1)
  store ptr %46, ptr %9, align 8, !tbaa !4
  %47 = load ptr, ptr %9, align 8, !tbaa !4
  %48 = call i32 @lean_obj_tag(ptr noundef %47)
  %49 = icmp eq i32 %48, 0
  br i1 %49, label %50, label %69

50:                                               ; preds = %42
  call void @llvm.lifetime.start.p0(i64 8, ptr %10) #7
  call void @llvm.lifetime.start.p0(i64 1, ptr %11) #7
  %51 = load ptr, ptr %6, align 8, !tbaa !4
  %52 = call ptr @lean_ctor_get(ptr noundef %51, i32 noundef 0)
  store ptr %52, ptr %10, align 8, !tbaa !4
  %53 = load ptr, ptr %10, align 8, !tbaa !4
  %54 = call i64 @lean_unbox(ptr noundef %53)
  %55 = trunc i64 %54 to i8
  store i8 %55, ptr %11, align 1, !tbaa !12
  %56 = load i8, ptr %11, align 1, !tbaa !12
  %57 = zext i8 %56 to i32
  %58 = icmp eq i32 %57, 0
  br i1 %58, label %59, label %66

59:                                               ; preds = %50
  call void @llvm.lifetime.start.p0(i64 8, ptr %12) #7
  call void @llvm.lifetime.start.p0(i64 1, ptr %13) #7
  %60 = load ptr, ptr %8, align 8, !tbaa !4
  %61 = call ptr @lean_ctor_get(ptr noundef %60, i32 noundef 0)
  store ptr %61, ptr %12, align 8, !tbaa !4
  %62 = load ptr, ptr %12, align 8, !tbaa !4
  %63 = call i64 @lean_unbox(ptr noundef %62)
  %64 = trunc i64 %63 to i8
  store i8 %64, ptr %13, align 1, !tbaa !12
  %65 = load i8, ptr %13, align 1, !tbaa !12
  store i8 %65, ptr %3, align 1
  store i32 1, ptr %14, align 4
  call void @llvm.lifetime.end.p0(i64 1, ptr %13) #7
  call void @llvm.lifetime.end.p0(i64 8, ptr %12) #7
  br label %68

66:                                               ; preds = %50
  call void @llvm.lifetime.start.p0(i64 1, ptr %15) #7
  store i8 0, ptr %15, align 1, !tbaa !12
  %67 = load i8, ptr %15, align 1, !tbaa !12
  store i8 %67, ptr %3, align 1
  store i32 1, ptr %14, align 4
  call void @llvm.lifetime.end.p0(i64 1, ptr %15) #7
  br label %68

68:                                               ; preds = %66, %59
  call void @llvm.lifetime.end.p0(i64 1, ptr %11) #7
  call void @llvm.lifetime.end.p0(i64 8, ptr %10) #7
  br label %71

69:                                               ; preds = %42
  call void @llvm.lifetime.start.p0(i64 1, ptr %16) #7
  store i8 0, ptr %16, align 1, !tbaa !12
  %70 = load i8, ptr %16, align 1, !tbaa !12
  store i8 %70, ptr %3, align 1
  store i32 1, ptr %14, align 4
  call void @llvm.lifetime.end.p0(i64 1, ptr %16) #7
  br label %71

71:                                               ; preds = %69, %68
  call void @llvm.lifetime.end.p0(i64 8, ptr %9) #7
  call void @llvm.lifetime.end.p0(i64 8, ptr %8) #7
  br label %135

72:                                               ; preds = %34
  call void @llvm.lifetime.start.p0(i64 8, ptr %17) #7
  call void @llvm.lifetime.start.p0(i64 8, ptr %18) #7
  %73 = load ptr, ptr %5, align 8, !tbaa !4
  %74 = call ptr @lean_ctor_get(ptr noundef %73, i32 noundef 0)
  store ptr %74, ptr %17, align 8, !tbaa !4
  %75 = load ptr, ptr %17, align 8, !tbaa !4
  %76 = call ptr @lean_ctor_get(ptr noundef %75, i32 noundef 1)
  store ptr %76, ptr %18, align 8, !tbaa !4
  %77 = load ptr, ptr %18, align 8, !tbaa !4
  %78 = call i32 @lean_obj_tag(ptr noundef %77)
  %79 = icmp eq i32 %78, 0
  br i1 %79, label %80, label %82

80:                                               ; preds = %72
  call void @llvm.lifetime.start.p0(i64 1, ptr %19) #7
  store i8 1, ptr %19, align 1, !tbaa !12
  %81 = load i8, ptr %19, align 1, !tbaa !12
  store i8 %81, ptr %3, align 1
  store i32 1, ptr %14, align 4
  call void @llvm.lifetime.end.p0(i64 1, ptr %19) #7
  br label %134

82:                                               ; preds = %72
  call void @llvm.lifetime.start.p0(i64 8, ptr %20) #7
  call void @llvm.lifetime.start.p0(i64 1, ptr %21) #7
  %83 = load ptr, ptr %6, align 8, !tbaa !4
  %84 = call ptr @lean_ctor_get(ptr noundef %83, i32 noundef 0)
  store ptr %84, ptr %20, align 8, !tbaa !4
  %85 = load ptr, ptr %20, align 8, !tbaa !4
  %86 = call i64 @lean_unbox(ptr noundef %85)
  %87 = trunc i64 %86 to i8
  store i8 %87, ptr %21, align 1, !tbaa !12
  %88 = load i8, ptr %21, align 1, !tbaa !12
  %89 = zext i8 %88 to i32
  %90 = icmp eq i32 %89, 0
  br i1 %90, label %91, label %112

91:                                               ; preds = %82
  call void @llvm.lifetime.start.p0(i64 8, ptr %22) #7
  call void @llvm.lifetime.start.p0(i64 1, ptr %23) #7
  %92 = load ptr, ptr %17, align 8, !tbaa !4
  %93 = call ptr @lean_ctor_get(ptr noundef %92, i32 noundef 0)
  store ptr %93, ptr %22, align 8, !tbaa !4
  %94 = load ptr, ptr %22, align 8, !tbaa !4
  %95 = call i64 @lean_unbox(ptr noundef %94)
  %96 = trunc i64 %95 to i8
  store i8 %96, ptr %23, align 1, !tbaa !12
  %97 = load i8, ptr %23, align 1, !tbaa !12
  %98 = zext i8 %97 to i32
  %99 = icmp eq i32 %98, 0
  br i1 %99, label %100, label %109

100:                                              ; preds = %91
  call void @llvm.lifetime.start.p0(i64 8, ptr %24) #7
  call void @llvm.lifetime.start.p0(i64 8, ptr %25) #7
  call void @llvm.lifetime.start.p0(i64 1, ptr %26) #7
  %101 = load ptr, ptr %7, align 8, !tbaa !4
  %102 = call ptr @lean_ctor_get(ptr noundef %101, i32 noundef 0)
  store ptr %102, ptr %24, align 8, !tbaa !4
  %103 = load ptr, ptr %18, align 8, !tbaa !4
  %104 = call ptr @lean_ctor_get(ptr noundef %103, i32 noundef 0)
  store ptr %104, ptr %25, align 8, !tbaa !4
  %105 = load ptr, ptr %24, align 8, !tbaa !4
  %106 = load ptr, ptr %25, align 8, !tbaa !4
  %107 = call zeroext i8 @lean_nat_dec_lt(ptr noundef %105, ptr noundef %106)
  store i8 %107, ptr %26, align 1, !tbaa !12
  %108 = load i8, ptr %26, align 1, !tbaa !12
  store i8 %108, ptr %3, align 1
  store i32 1, ptr %14, align 4
  call void @llvm.lifetime.end.p0(i64 1, ptr %26) #7
  call void @llvm.lifetime.end.p0(i64 8, ptr %25) #7
  call void @llvm.lifetime.end.p0(i64 8, ptr %24) #7
  br label %111

109:                                              ; preds = %91
  call void @llvm.lifetime.start.p0(i64 1, ptr %27) #7
  store i8 1, ptr %27, align 1, !tbaa !12
  %110 = load i8, ptr %27, align 1, !tbaa !12
  store i8 %110, ptr %3, align 1
  store i32 1, ptr %14, align 4
  call void @llvm.lifetime.end.p0(i64 1, ptr %27) #7
  br label %111

111:                                              ; preds = %109, %100
  call void @llvm.lifetime.end.p0(i64 1, ptr %23) #7
  call void @llvm.lifetime.end.p0(i64 8, ptr %22) #7
  br label %133

112:                                              ; preds = %82
  call void @llvm.lifetime.start.p0(i64 8, ptr %28) #7
  call void @llvm.lifetime.start.p0(i64 1, ptr %29) #7
  %113 = load ptr, ptr %17, align 8, !tbaa !4
  %114 = call ptr @lean_ctor_get(ptr noundef %113, i32 noundef 0)
  store ptr %114, ptr %28, align 8, !tbaa !4
  %115 = load ptr, ptr %28, align 8, !tbaa !4
  %116 = call i64 @lean_unbox(ptr noundef %115)
  %117 = trunc i64 %116 to i8
  store i8 %117, ptr %29, align 1, !tbaa !12
  %118 = load i8, ptr %29, align 1, !tbaa !12
  %119 = zext i8 %118 to i32
  %120 = icmp eq i32 %119, 0
  br i1 %120, label %121, label %123

121:                                              ; preds = %112
  call void @llvm.lifetime.start.p0(i64 1, ptr %30) #7
  store i8 0, ptr %30, align 1, !tbaa !12
  %122 = load i8, ptr %30, align 1, !tbaa !12
  store i8 %122, ptr %3, align 1
  store i32 1, ptr %14, align 4
  call void @llvm.lifetime.end.p0(i64 1, ptr %30) #7
  br label %132

123:                                              ; preds = %112
  call void @llvm.lifetime.start.p0(i64 8, ptr %31) #7
  call void @llvm.lifetime.start.p0(i64 8, ptr %32) #7
  call void @llvm.lifetime.start.p0(i64 1, ptr %33) #7
  %124 = load ptr, ptr %7, align 8, !tbaa !4
  %125 = call ptr @lean_ctor_get(ptr noundef %124, i32 noundef 0)
  store ptr %125, ptr %31, align 8, !tbaa !4
  %126 = load ptr, ptr %18, align 8, !tbaa !4
  %127 = call ptr @lean_ctor_get(ptr noundef %126, i32 noundef 0)
  store ptr %127, ptr %32, align 8, !tbaa !4
  %128 = load ptr, ptr %31, align 8, !tbaa !4
  %129 = load ptr, ptr %32, align 8, !tbaa !4
  %130 = call zeroext i8 @lean_nat_dec_lt(ptr noundef %128, ptr noundef %129)
  store i8 %130, ptr %33, align 1, !tbaa !12
  %131 = load i8, ptr %33, align 1, !tbaa !12
  store i8 %131, ptr %3, align 1
  store i32 1, ptr %14, align 4
  call void @llvm.lifetime.end.p0(i64 1, ptr %33) #7
  call void @llvm.lifetime.end.p0(i64 8, ptr %32) #7
  call void @llvm.lifetime.end.p0(i64 8, ptr %31) #7
  br label %132

132:                                              ; preds = %123, %121
  call void @llvm.lifetime.end.p0(i64 1, ptr %29) #7
  call void @llvm.lifetime.end.p0(i64 8, ptr %28) #7
  br label %133

133:                                              ; preds = %132, %111
  call void @llvm.lifetime.end.p0(i64 1, ptr %21) #7
  call void @llvm.lifetime.end.p0(i64 8, ptr %20) #7
  br label %134

134:                                              ; preds = %133, %80
  call void @llvm.lifetime.end.p0(i64 8, ptr %18) #7
  call void @llvm.lifetime.end.p0(i64 8, ptr %17) #7
  br label %135

135:                                              ; preds = %134, %71
  call void @llvm.lifetime.end.p0(i64 8, ptr %7) #7
  call void @llvm.lifetime.end.p0(i64 8, ptr %6) #7
  %136 = load i8, ptr %3, align 1
  ret i8 %136
}