; Function Attrs: nounwind uwtable
define zeroext i8 @l_Array_qsort_sort___at___private_Lean_Server_Completion_CompletionInfoSelection_0__Lean_Server_Completion_computePrioritizedCompletionPartitions___spec__10___lambda__1(ptr noundef readonly captures(none) %0, ptr noundef readonly captures(none) %1) local_unnamed_addr #0 {
  %3 = getelementptr inbounds nuw i8, ptr %0, i64 8
  %4 = load ptr, ptr %3, align 8, !tbaa !4
  %5 = getelementptr inbounds nuw i8, ptr %4, i64 8
  %6 = getelementptr inbounds nuw i8, ptr %4, i64 16
  %7 = load ptr, ptr %6, align 8, !tbaa !4
  %8 = ptrtoint ptr %7 to i64
  %9 = and i64 %8, 1
  %.not.i = icmp eq i64 %9, 0
  br i1 %.not.i, label %13, label %10

10:                                               ; preds = %2
  %11 = lshr i64 %8, 1
  %12 = trunc i64 %11 to i32
  br label %lean_obj_tag.exit

13:                                               ; preds = %2
  %14 = getelementptr i8, ptr %7, i64 4
  %.val.i = load i32, ptr %14, align 4
  %15 = lshr i32 %.val.i, 24
  br label %lean_obj_tag.exit

lean_obj_tag.exit:                                ; preds = %10, %13
  %.0.i42 = phi i32 [ %12, %10 ], [ %15, %13 ]
  %16 = icmp eq i32 %.0.i42, 0
  %17 = getelementptr inbounds nuw i8, ptr %1, i64 8
  %18 = load ptr, ptr %17, align 8, !tbaa !4
  %19 = getelementptr inbounds nuw i8, ptr %18, i64 8
  %20 = getelementptr inbounds nuw i8, ptr %18, i64 16
  %21 = load ptr, ptr %20, align 8, !tbaa !4
  %22 = ptrtoint ptr %21 to i64
  %23 = and i64 %22, 1
  %.not.i43 = icmp eq i64 %23, 0
  br i1 %16, label %24, label %42

24:                                               ; preds = %lean_obj_tag.exit
  br i1 %.not.i43, label %28, label %25

25:                                               ; preds = %24
  %26 = lshr i64 %22, 1
  %27 = trunc i64 %26 to i32
  br label %lean_obj_tag.exit46

28:                                               ; preds = %24
  %29 = getelementptr i8, ptr %21, i64 4
  %.val.i45 = load i32, ptr %29, align 4
  %30 = lshr i32 %.val.i45, 24
  br label %lean_obj_tag.exit46

lean_obj_tag.exit46:                              ; preds = %25, %28
  %.0.i44 = phi i32 [ %27, %25 ], [ %30, %28 ]
  %31 = icmp eq i32 %.0.i44, 0
  br i1 %31, label %32, label %91

32:                                               ; preds = %lean_obj_tag.exit46
  %33 = load ptr, ptr %5, align 8, !tbaa !4
  %34 = ptrtoint ptr %33 to i64
  %35 = and i64 %34, 510
  %36 = icmp eq i64 %35, 0
  br i1 %36, label %37, label %91

37:                                               ; preds = %32
  %38 = load ptr, ptr %19, align 8, !tbaa !4
  %39 = ptrtoint ptr %38 to i64
  %40 = lshr i64 %39, 1
  %41 = trunc i64 %40 to i8
  br label %91

42:                                               ; preds = %lean_obj_tag.exit
  br i1 %.not.i43, label %46, label %43

43:                                               ; preds = %42
  %44 = lshr i64 %22, 1
  %45 = trunc i64 %44 to i32
  br label %lean_obj_tag.exit50

46:                                               ; preds = %42
  %47 = getelementptr i8, ptr %21, i64 4
  %.val.i49 = load i32, ptr %47, align 4
  %48 = lshr i32 %.val.i49, 24
  br label %lean_obj_tag.exit50

lean_obj_tag.exit50:                              ; preds = %43, %46
  %.0.i48 = phi i32 [ %45, %43 ], [ %48, %46 ]
  %49 = icmp eq i32 %.0.i48, 0
  br i1 %49, label %91, label %50

50:                                               ; preds = %lean_obj_tag.exit50
  %51 = load ptr, ptr %5, align 8, !tbaa !4
  %52 = ptrtoint ptr %51 to i64
  %53 = and i64 %52, 510
  %54 = icmp eq i64 %53, 0
  %55 = load ptr, ptr %19, align 8, !tbaa !4
  %56 = ptrtoint ptr %55 to i64
  %57 = and i64 %56, 510
  %58 = icmp eq i64 %57, 0
  br i1 %54, label %59, label %75

59:                                               ; preds = %50
  br i1 %58, label %60, label %91

60:                                               ; preds = %59
  %61 = getelementptr inbounds nuw i8, ptr %7, i64 8
  %62 = load ptr, ptr %61, align 8, !tbaa !4
  %63 = getelementptr inbounds nuw i8, ptr %21, i64 8
  %64 = load ptr, ptr %63, align 8, !tbaa !4
  %65 = ptrtoint ptr %62 to i64
  %66 = and i64 %65, 1
  %67 = icmp ne i64 %66, 0
  %68 = ptrtoint ptr %64 to i64
  %69 = and i64 %68, 1
  %70 = icmp ne i64 %69, 0
  %or.cond = select i1 %67, i1 %70, i1 false
  br i1 %or.cond, label %71, label %.critedge.i, !prof !18

71:                                               ; preds = %60
  %72 = icmp ult ptr %62, %64
  br label %lean_nat_lt.exit

.critedge.i:                                      ; preds = %60
  %73 = tail call zeroext i1 @lean_nat_big_lt(ptr noundef %62, ptr noundef %64) #4
  br label %lean_nat_lt.exit

lean_nat_lt.exit:                                 ; preds = %71, %.critedge.i
  %.0.i = phi i1 [ %72, %71 ], [ %73, %.critedge.i ]
  %74 = zext i1 %.0.i to i8
  br label %91

75:                                               ; preds = %50
  br i1 %58, label %91, label %76

76:                                               ; preds = %75
  %77 = getelementptr inbounds nuw i8, ptr %7, i64 8
  %78 = load ptr, ptr %77, align 8, !tbaa !4
  %79 = getelementptr inbounds nuw i8, ptr %21, i64 8
  %80 = load ptr, ptr %79, align 8, !tbaa !4
  %81 = ptrtoint ptr %78 to i64
  %82 = and i64 %81, 1
  %83 = icmp ne i64 %82, 0
  %84 = ptrtoint ptr %80 to i64
  %85 = and i64 %84, 1
  %86 = icmp ne i64 %85, 0
  %or.cond55 = select i1 %83, i1 %86, i1 false
  br i1 %or.cond55, label %87, label %.critedge.i39, !prof !18

87:                                               ; preds = %76
  %88 = icmp ult ptr %78, %80
  br label %lean_nat_lt.exit41

.critedge.i39:                                    ; preds = %76
  %89 = tail call zeroext i1 @lean_nat_big_lt(ptr noundef %78, ptr noundef %80) #4
  br label %lean_nat_lt.exit41

lean_nat_lt.exit41:                               ; preds = %87, %.critedge.i39
  %.0.i40 = phi i1 [ %88, %87 ], [ %89, %.critedge.i39 ]
  %90 = zext i1 %.0.i40 to i8
  br label %91

91:                                               ; preds = %lean_obj_tag.exit50, %lean_nat_lt.exit41, %75, %lean_nat_lt.exit, %59, %32, %37, %lean_obj_tag.exit46
  %.2 = phi i8 [ %41, %37 ], [ 0, %32 ], [ 0, %lean_obj_tag.exit46 ], [ 1, %lean_obj_tag.exit50 ], [ %74, %lean_nat_lt.exit ], [ 1, %59 ], [ %90, %lean_nat_lt.exit41 ], [ 0, %75 ]
  ret i8 %.2
}